target datalayout = "e-m:e-p270:32:32-p271:32:32-p272:64:64-i64:64-i128:128-f80:128-n8:16:32:64-S128"
target triple = "x86_64-pc-linux-gnu"

%struct.archive_write = type { %struct.archive, i32, i64, i64, ptr, i64, ptr, ptr, ptr, ptr, ptr, i32, i32, ptr, ptr, ptr, ptr, ptr, ptr, ptr, ptr, ptr, ptr, ptr, ptr, ptr, ptr }
%struct.archive = type { i32, i32, ptr, i32, ptr, i32, i32, ptr, %struct.archive_string, ptr, i32, i32, ptr, ptr, i64, i64, i64, i8, i64 }
%struct.archive_string = type { ptr, i64, i64 }
%struct.pax = type { i64, i64, %struct.archive_string, %struct.archive_string, %struct.archive_string, i64, ptr, ptr, ptr, i32, i32 }
%struct.sparse_block = type { ptr, i32, i64, i64 }

; Function Attrs: nounwind uwtable
define internal i32 @archive_write_pax_finish_entry(ptr noundef %0) #0 {
  %2 = alloca ptr, align 8
  %3 = alloca ptr, align 8
  %4 = alloca i64, align 8
  %5 = alloca i32, align 4
  %6 = alloca ptr, align 8
  store ptr %0, ptr %2, align 8
  %7 = load ptr, ptr %2, align 8
  %8 = getelementptr inbounds %struct.archive_write, ptr %7, i32 0, i32 15
  %9 = load ptr, ptr %8, align 8
  store ptr %9, ptr %3, align 8
  %10 = load ptr, ptr %3, align 8
  %11 = getelementptr inbounds %struct.pax, ptr %10, i32 0, i32 0
  %12 = load i64, ptr %11, align 8
  store i64 %12, ptr %4, align 8
  %13 = load i64, ptr %4, align 8
  %14 = icmp eq i64 %13, 0
  br i1 %14, label %15, label %49

15:                                               ; preds = %1
  br label %16

16:                                               ; preds = %36, %15
  %17 = load ptr, ptr %3, align 8
  %18 = getelementptr inbounds %struct.pax, ptr %17, i32 0, i32 6
  %19 = load ptr, ptr %18, align 8
  %20 = icmp ne ptr %19, null
  br i1 %20, label %21, label %48

21:                                               ; preds = %16
  %22 = load ptr, ptr %3, align 8
  %23 = getelementptr inbounds %struct.pax, ptr %22, i32 0, i32 6
  %24 = load ptr, ptr %23, align 8
  %25 = getelementptr inbounds %struct.sparse_block, ptr %24, i32 0, i32 1
  %26 = load i32, ptr %25, align 8
  %27 = icmp ne i32 %26, 0
  br i1 %27, label %36, label %28

28:                                               ; preds = %21
  %29 = load ptr, ptr %3, align 8
  %30 = getelementptr inbounds %struct.pax, ptr %29, i32 0, i32 6
  %31 = load ptr, ptr %30, align 8
  %32 = getelementptr inbounds %struct.sparse_block, ptr %31, i32 0, i32 3
  %33 = load i64, ptr %32, align 8
  %34 = load i64, ptr %4, align 8
  %35 = add i64 %34, %33
  store i64 %35, ptr %4, align 8
  br label %36

36:                                               ; preds = %28, %21
  %37 = load ptr, ptr %3, align 8
  %38 = getelementptr inbounds %struct.pax, ptr %37, i32 0, i32 6
  %39 = load ptr, ptr %38, align 8
  %40 = getelementptr inbounds %struct.sparse_block, ptr %39, i32 0, i32 0
  %41 = load ptr, ptr %40, align 8
  store ptr %41, ptr %6, align 8
  %42 = load ptr, ptr %3, align 8
  %43 = getelementptr inbounds %struct.pax, ptr %42, i32 0, i32 6
  %44 = load ptr, ptr %43, align 8
  call void @free(ptr noundef %44) #11
  %45 = load ptr, ptr %6, align 8
  %46 = load ptr, ptr %3, align 8
  %47 = getelementptr inbounds %struct.pax, ptr %46, i32 0, i32 6
  store ptr %45, ptr %47, align 8
  br label %16, !llvm.loop !11

48:                                               ; preds = %16
  br label %49

49:                                               ; preds = %48, %1
  %50 = load ptr, ptr %2, align 8
  %51 = load i64, ptr %4, align 8
  %52 = load ptr, ptr %3, align 8
  %53 = getelementptr inbounds %struct.pax, ptr %52, i32 0, i32 1
  %54 = load i64, ptr %53, align 8
  %55 = add i64 %51, %54
  %56 = call i32 @__archive_write_nulls(ptr noundef %50, i64 noundef %55)
  store i32 %56, ptr %5, align 4
  %57 = load ptr, ptr %3, align 8
  %58 = getelementptr inbounds %struct.pax, ptr %57, i32 0, i32 1
  store i64 0, ptr %58, align 8
  %59 = load ptr, ptr %3, align 8
  %60 = getelementptr inbounds %struct.pax, ptr %59, i32 0, i32 0
  store i64 0, ptr %60, align 8
  %61 = load i32, ptr %5, align 4
  ret i32 %61
}