; Function Attrs: nounwind uwtable
define internal i32 @archive_write_pax_finish_entry(ptr noundef %0) #0 {
  %2 = getelementptr inbounds nuw i8, ptr %0, i64 248
  %3 = load ptr, ptr %2, align 8
  %4 = load i64, ptr %3, align 8
  %5 = icmp eq i64 %4, 0
  br i1 %5, label %.preheader, label %.loopexit

.preheader:                                       ; preds = %1
  %6 = getelementptr inbounds nuw i8, ptr %3, i64 96
  %7 = load ptr, ptr %6, align 8
  %.not20 = icmp eq ptr %7, null
  br i1 %.not20, label %.loopexit, label %.lr.ph

.lr.ph:                                           ; preds = %.preheader, %15
  %8 = phi ptr [ %16, %15 ], [ %7, %.preheader ]
  %.121 = phi i64 [ %.2, %15 ], [ 0, %.preheader ]
  %9 = getelementptr inbounds nuw i8, ptr %8, i64 8
  %10 = load i32, ptr %9, align 8
  %.not19 = icmp eq i32 %10, 0
  br i1 %.not19, label %11, label %15

11:                                               ; preds = %.lr.ph
  %12 = getelementptr inbounds nuw i8, ptr %8, i64 24
  %13 = load i64, ptr %12, align 8
  %14 = add i64 %13, %.121
  br label %15

15:                                               ; preds = %11, %.lr.ph
  %.2 = phi i64 [ %.121, %.lr.ph ], [ %14, %11 ]
  %16 = load ptr, ptr %8, align 8
  tail call void @free(ptr noundef nonnull %8) #15
  store ptr %16, ptr %6, align 8
  %.not = icmp eq ptr %16, null
  br i1 %.not, label %.loopexit, label %.lr.ph, !llvm.loop !7

.loopexit:                                        ; preds = %15, %.preheader, %1
  %.0 = phi i64 [ %4, %1 ], [ 0, %.preheader ], [ %.2, %15 ]
  %17 = getelementptr inbounds nuw i8, ptr %3, i64 8
  %18 = load i64, ptr %17, align 8
  %19 = add i64 %18, %.0
  %20 = tail call i32 @__archive_write_nulls(ptr noundef %0, i64 noundef %19) #15
  tail call void @llvm.memset.p0.i64(ptr noundef nonnull align 8 dereferenceable(16) %3, i8 0, i64 16, i1 false)
  ret i32 %20
}